#include <math.h>
#include <stdio.h>
#include <stdlib.h>
#include <string.h>

int main()
{
	int A[12]={31,28,31,30,31,30,31,31,30,31,30,31};
	int a,b,c,i,y=0;
	scanf("%d%d%d",&a,&b,&c);
	for(i=0;i<b-1;)
	{
		y=y+A[i];
		i++;
	}
	y=y+c;
	if(a%4==0&a%100!=0||a%400==0)
	{
		if(b<=2)
		{
			printf("%d",y);
		}
		else
		{
			y=y+1;
			printf("%d",y);
		}
	}
	else
		printf("%d",y);
	return 0;
}
